target datalayout = "e-m:e-p270:32:32-p271:32:32-p272:64:64-i64:64-i128:128-f80:128-n8:16:32:64-S128"
target triple = "x86_64-pc-linux-gnu"

%struct.JSValue = type { %union.JSValueUnion, i64 }
%union.JSValueUnion = type { double }
%struct.JSRefCountHeader = type { i32 }
%struct.JSPropertyEnum = type { i32, i32 }

; Function Attrs: nounwind uwtable
define internal void @JS_FreeValue(ptr noundef %0, i64 %1, i64 %2) #0 {
  %4 = alloca %struct.JSValue, align 8
  %5 = alloca ptr, align 8
  %6 = alloca ptr, align 8
  %7 = getelementptr inbounds { i64, i64 }, ptr %4, i32 0, i32 0
  store i64 %1, ptr %7, align 8
  %8 = getelementptr inbounds { i64, i64 }, ptr %4, i32 0, i32 1
  store i64 %2, ptr %8, align 8
  store ptr %0, ptr %5, align 8
  %9 = getelementptr inbounds %struct.JSValue, ptr %4, i32 0, i32 1
  %10 = load i64, ptr %9, align 8
  %11 = trunc i64 %10 to i32
  %12 = icmp uge i32 %11, -11
  br i1 %12, label %13, label %28

13:                                               ; preds = %3
  %14 = getelementptr inbounds %struct.JSValue, ptr %4, i32 0, i32 0
  %15 = load ptr, ptr %14, align 8
  store ptr %15, ptr %6, align 8
  %16 = load ptr, ptr %6, align 8
  %17 = getelementptr inbounds %struct.JSRefCountHeader, ptr %16, i32 0, i32 0
  %18 = load i32, ptr %17, align 4
  %19 = add i32 %18, -1
  store i32 %19, ptr %17, align 4
  %20 = icmp sle i32 %19, 0
  br i1 %20, label %21, label %27

21:                                               ; preds = %13
  %22 = load ptr, ptr %5, align 8
  %23 = getelementptr inbounds { i64, i64 }, ptr %4, i32 0, i32 0
  %24 = load i64, ptr %23, align 8
  %25 = getelementptr inbounds { i64, i64 }, ptr %4, i32 0, i32 1
  %26 = load i64, ptr %25, align 8
  call void @__JS_FreeValue(ptr noundef %22, i64 %24, i64 %26)
  br label %27

27:                                               ; preds = %21, %13
  br label %28

28:                                               ; preds = %27, %3
  ret void
}

; Function Attrs: nounwind uwtable
define internal ptr @JS_ToCString(ptr noundef %0, i64 %1, i64 %2) #0 {
  %4 = alloca %struct.JSValue, align 8
  %5 = alloca ptr, align 8
  %6 = getelementptr inbounds { i64, i64 }, ptr %4, i32 0, i32 0
  store i64 %1, ptr %6, align 8
  %7 = getelementptr inbounds { i64, i64 }, ptr %4, i32 0, i32 1
  store i64 %2, ptr %7, align 8
  store ptr %0, ptr %5, align 8
  %8 = load ptr, ptr %5, align 8
  %9 = getelementptr inbounds { i64, i64 }, ptr %4, i32 0, i32 0
  %10 = load i64, ptr %9, align 8
  %11 = getelementptr inbounds { i64, i64 }, ptr %4, i32 0, i32 1
  %12 = load i64, ptr %11, align 8
  %13 = call ptr @JS_ToCStringLen2(ptr noundef %8, ptr noundef null, i64 %10, i64 %12, i32 noundef 0)
  ret ptr %13
}

; Function Attrs: nounwind uwtable
define internal i32 @JS_IsException(i64 %0, i64 %1) #0 {
  %3 = alloca %struct.JSValue, align 8
  %4 = getelementptr inbounds { i64, i64 }, ptr %3, i32 0, i32 0
  store i64 %0, ptr %4, align 8
  %5 = getelementptr inbounds { i64, i64 }, ptr %3, i32 0, i32 1
  store i64 %1, ptr %5, align 8
  %6 = getelementptr inbounds %struct.JSValue, ptr %3, i32 0, i32 1
  %7 = load i64, ptr %6, align 8
  %8 = trunc i64 %7 to i32
  %9 = icmp eq i32 %8, 6
  %10 = xor i1 %9, true
  %11 = xor i1 %10, true
  %12 = zext i1 %11 to i32
  %13 = sext i32 %12 to i64
  %14 = trunc i64 %13 to i32
  ret i32 %14
}

; Function Attrs: nounwind uwtable
define internal ptr @build_envp(ptr noundef %0, i64 %1, i64 %2) #0 {
  %4 = alloca %struct.JSValue, align 8
  %5 = alloca %struct.JSValue, align 8
  %6 = alloca ptr, align 8
  %7 = alloca i32, align 4
  %8 = alloca ptr, align 8
  %9 = alloca %struct.JSValue, align 8
  %10 = alloca ptr, align 8
  %11 = alloca i32, align 4
  %12 = alloca i32, align 4
  %13 = alloca ptr, align 8
  %14 = alloca ptr, align 8
  %15 = alloca ptr, align 8
  %16 = alloca ptr, align 8
  %17 = alloca ptr, align 8
  %18 = alloca %struct.JSValue, align 8
  %19 = alloca i64, align 8
  %20 = alloca i64, align 8
  %21 = alloca %struct.JSValue, align 8
  %22 = getelementptr inbounds { i64, i64 }, ptr %9, i32 0, i32 0
  store i64 %1, ptr %22, align 8
  %23 = getelementptr inbounds { i64, i64 }, ptr %9, i32 0, i32 1
  store i64 %2, ptr %23, align 8
  store ptr %0, ptr %10, align 8
  %24 = load ptr, ptr %10, align 8
  %25 = getelementptr inbounds { i64, i64 }, ptr %9, i32 0, i32 0
  %26 = load i64, ptr %25, align 8
  %27 = getelementptr inbounds { i64, i64 }, ptr %9, i32 0, i32 1
  %28 = load i64, ptr %27, align 8
  %29 = call i32 @JS_GetOwnPropertyNames(ptr noundef %24, ptr noundef %13, ptr noundef %11, i64 %26, i64 %28, i32 noundef 17)
  %30 = icmp slt i32 %29, 0
  br i1 %30, label %31, label %32

31:                                               ; preds = %3
  store ptr null, ptr %8, align 8
  br label %205

32:                                               ; preds = %3
  %33 = load ptr, ptr %10, align 8
  %34 = load i32, ptr %11, align 4
  %35 = zext i32 %34 to i64
  %36 = add i64 %35, 1
  %37 = mul i64 8, %36
  %38 = call ptr @js_mallocz(ptr noundef %33, i64 noundef %37)
  store ptr %38, ptr %14, align 8
  %39 = load ptr, ptr %14, align 8
  %40 = icmp ne ptr %39, null
  br i1 %40, label %42, label %41

41:                                               ; preds = %32
  br label %183

42:                                               ; preds = %32
  store i32 0, ptr %12, align 4
  br label %43

43:                                               ; preds = %159, %42
  %44 = load i32, ptr %12, align 4
  %45 = load i32, ptr %11, align 4
  %46 = icmp ult i32 %44, %45
  br i1 %46, label %47, label %162

47:                                               ; preds = %43
  %48 = load ptr, ptr %10, align 8
  %49 = load ptr, ptr %13, align 8
  %50 = load i32, ptr %12, align 4
  %51 = zext i32 %50 to i64
  %52 = getelementptr %struct.JSPropertyEnum, ptr %49, i64 %51
  %53 = getelementptr inbounds %struct.JSPropertyEnum, ptr %52, i32 0, i32 1
  %54 = load i32, ptr %53, align 4
  %55 = getelementptr inbounds { i64, i64 }, ptr %9, i32 0, i32 0
  %56 = load i64, ptr %55, align 8
  %57 = getelementptr inbounds { i64, i64 }, ptr %9, i32 0, i32 1
  %58 = load i64, ptr %57, align 8
  store i64 %56, ptr %5, align 8
  %59 = getelementptr inbounds { i64, i64 }, ptr %5, i32 0, i32 1
  store i64 %58, ptr %59, align 8
  store ptr %48, ptr %6, align 8
  store i32 %54, ptr %7, align 4
  %60 = load ptr, ptr %6, align 8
  %61 = load i32, ptr %7, align 4
  %62 = load i64, ptr %5, align 8
  %63 = getelementptr inbounds { i64, i64 }, ptr %5, i32 0, i32 1
  %64 = load i64, ptr %63, align 8
  %65 = load i64, ptr %5, align 8
  %66 = getelementptr inbounds { i64, i64 }, ptr %5, i32 0, i32 1
  %67 = load i64, ptr %66, align 8
  %68 = call { i64, i64 } @JS_GetPropertyInternal(ptr noundef %60, i64 %62, i64 %64, i32 noundef %61, i64 %65, i64 %67, i32 noundef 0) #12
  %69 = extractvalue { i64, i64 } %68, 0
  store i64 %69, ptr %4, align 8
  %70 = getelementptr inbounds { i64, i64 }, ptr %4, i32 0, i32 1
  %71 = extractvalue { i64, i64 } %68, 1
  store i64 %71, ptr %70, align 8
  %72 = load { i64, i64 }, ptr %4, align 8
  %73 = getelementptr inbounds { i64, i64 }, ptr %21, i32 0, i32 0
  %74 = extractvalue { i64, i64 } %72, 0
  store i64 %74, ptr %73, align 8
  %75 = getelementptr inbounds { i64, i64 }, ptr %21, i32 0, i32 1
  %76 = extractvalue { i64, i64 } %72, 1
  store i64 %76, ptr %75, align 8
  call void @llvm.memcpy.p0.p0.i64(ptr align 8 %18, ptr align 8 %21, i64 16, i1 false)
  %77 = getelementptr inbounds { i64, i64 }, ptr %18, i32 0, i32 0
  %78 = load i64, ptr %77, align 8
  %79 = getelementptr inbounds { i64, i64 }, ptr %18, i32 0, i32 1
  %80 = load i64, ptr %79, align 8
  %81 = call i32 @JS_IsException(i64 %78, i64 %80)
  %82 = icmp ne i32 %81, 0
  br i1 %82, label %83, label %84

83:                                               ; preds = %47
  br label %183

84:                                               ; preds = %47
  %85 = load ptr, ptr %10, align 8
  %86 = getelementptr inbounds { i64, i64 }, ptr %18, i32 0, i32 0
  %87 = load i64, ptr %86, align 8
  %88 = getelementptr inbounds { i64, i64 }, ptr %18, i32 0, i32 1
  %89 = load i64, ptr %88, align 8
  %90 = call ptr @JS_ToCString(ptr noundef %85, i64 %87, i64 %89)
  store ptr %90, ptr %17, align 8
  %91 = load ptr, ptr %10, align 8
  %92 = getelementptr inbounds { i64, i64 }, ptr %18, i32 0, i32 0
  %93 = load i64, ptr %92, align 8
  %94 = getelementptr inbounds { i64, i64 }, ptr %18, i32 0, i32 1
  %95 = load i64, ptr %94, align 8
  call void @JS_FreeValue(ptr noundef %91, i64 %93, i64 %95)
  %96 = load ptr, ptr %17, align 8
  %97 = icmp ne ptr %96, null
  br i1 %97, label %99, label %98

98:                                               ; preds = %84
  br label %183

99:                                               ; preds = %84
  %100 = load ptr, ptr %10, align 8
  %101 = load ptr, ptr %13, align 8
  %102 = load i32, ptr %12, align 4
  %103 = zext i32 %102 to i64
  %104 = getelementptr %struct.JSPropertyEnum, ptr %101, i64 %103
  %105 = getelementptr inbounds %struct.JSPropertyEnum, ptr %104, i32 0, i32 1
  %106 = load i32, ptr %105, align 4
  %107 = call ptr @JS_AtomToCString(ptr noundef %100, i32 noundef %106)
  store ptr %107, ptr %16, align 8
  %108 = load ptr, ptr %16, align 8
  %109 = icmp ne ptr %108, null
  br i1 %109, label %113, label %110

110:                                              ; preds = %99
  %111 = load ptr, ptr %10, align 8
  %112 = load ptr, ptr %17, align 8
  call void @JS_FreeCString(ptr noundef %111, ptr noundef %112)
  br label %183

113:                                              ; preds = %99
  %114 = load ptr, ptr %16, align 8
  %115 = call i64 @strlen(ptr noundef %114) #13
  store i64 %115, ptr %19, align 8
  %116 = load ptr, ptr %17, align 8
  %117 = call i64 @strlen(ptr noundef %116) #13
  store i64 %117, ptr %20, align 8
  %118 = load ptr, ptr %10, align 8
  %119 = load i64, ptr %19, align 8
  %120 = load i64, ptr %20, align 8
  %121 = add i64 %119, %120
  %122 = add i64 %121, 2
  %123 = call ptr @js_malloc(ptr noundef %118, i64 noundef %122)
  store ptr %123, ptr %15, align 8
  %124 = load ptr, ptr %15, align 8
  %125 = icmp ne ptr %124, null
  br i1 %125, label %131, label %126

126:                                              ; preds = %113
  %127 = load ptr, ptr %10, align 8
  %128 = load ptr, ptr %16, align 8
  call void @JS_FreeCString(ptr noundef %127, ptr noundef %128)
  %129 = load ptr, ptr %10, align 8
  %130 = load ptr, ptr %17, align 8
  call void @JS_FreeCString(ptr noundef %129, ptr noundef %130)
  br label %183

131:                                              ; preds = %113
  %132 = load ptr, ptr %15, align 8
  %133 = load ptr, ptr %16, align 8
  %134 = load i64, ptr %19, align 8
  call void @llvm.memcpy.p0.p0.i64(ptr align 1 %132, ptr align 1 %133, i64 %134, i1 false)
  %135 = load ptr, ptr %15, align 8
  %136 = load i64, ptr %19, align 8
  %137 = getelementptr i8, ptr %135, i64 %136
  store i8 61, ptr %137, align 1
  %138 = load ptr, ptr %15, align 8
  %139 = load i64, ptr %19, align 8
  %140 = getelementptr i8, ptr %138, i64 %139
  %141 = getelementptr i8, ptr %140, i64 1
  %142 = load ptr, ptr %17, align 8
  %143 = load i64, ptr %20, align 8
  call void @llvm.memcpy.p0.p0.i64(ptr align 1 %141, ptr align 1 %142, i64 %143, i1 false)
  %144 = load ptr, ptr %15, align 8
  %145 = load i64, ptr %19, align 8
  %146 = add i64 %145, 1
  %147 = load i64, ptr %20, align 8
  %148 = add i64 %146, %147
  %149 = getelementptr i8, ptr %144, i64 %148
  store i8 0, ptr %149, align 1
  %150 = load ptr, ptr %15, align 8
  %151 = load ptr, ptr %14, align 8
  %152 = load i32, ptr %12, align 4
  %153 = zext i32 %152 to i64
  %154 = getelementptr ptr, ptr %151, i64 %153
  store ptr %150, ptr %154, align 8
  %155 = load ptr, ptr %10, align 8
  %156 = load ptr, ptr %16, align 8
  call void @JS_FreeCString(ptr noundef %155, ptr noundef %156)
  %157 = load ptr, ptr %10, align 8
  %158 = load ptr, ptr %17, align 8
  call void @JS_FreeCString(ptr noundef %157, ptr noundef %158)
  br label %159

159:                                              ; preds = %131
  %160 = load i32, ptr %12, align 4
  %161 = add i32 %160, 1
  store i32 %161, ptr %12, align 4
  br label %43, !llvm.loop !45

162:                                              ; preds = %43
  br label %163

163:                                              ; preds = %204, %162
  store i32 0, ptr %12, align 4
  br label %164

164:                                              ; preds = %176, %163
  %165 = load i32, ptr %12, align 4
  %166 = load i32, ptr %11, align 4
  %167 = icmp ult i32 %165, %166
  br i1 %167, label %168, label %179

168:                                              ; preds = %164
  %169 = load ptr, ptr %10, align 8
  %170 = load ptr, ptr %13, align 8
  %171 = load i32, ptr %12, align 4
  %172 = zext i32 %171 to i64
  %173 = getelementptr %struct.JSPropertyEnum, ptr %170, i64 %172
  %174 = getelementptr inbounds %struct.JSPropertyEnum, ptr %173, i32 0, i32 1
  %175 = load i32, ptr %174, align 4
  call void @JS_FreeAtom(ptr noundef %169, i32 noundef %175)
  br label %176

176:                                              ; preds = %168
  %177 = load i32, ptr %12, align 4
  %178 = add i32 %177, 1
  store i32 %178, ptr %12, align 4
  br label %164, !llvm.loop !46

179:                                              ; preds = %164
  %180 = load ptr, ptr %10, align 8
  %181 = load ptr, ptr %13, align 8
  call void @js_free(ptr noundef %180, ptr noundef %181)
  %182 = load ptr, ptr %14, align 8
  store ptr %182, ptr %8, align 8
  br label %205

183:                                              ; preds = %126, %110, %98, %83, %41
  %184 = load ptr, ptr %14, align 8
  %185 = icmp ne ptr %184, null
  br i1 %185, label %186, label %204

186:                                              ; preds = %183
  store i32 0, ptr %12, align 4
  br label %187

187:                                              ; preds = %198, %186
  %188 = load i32, ptr %12, align 4
  %189 = load i32, ptr %11, align 4
  %190 = icmp ult i32 %188, %189
  br i1 %190, label %191, label %201

191:                                              ; preds = %187
  %192 = load ptr, ptr %10, align 8
  %193 = load ptr, ptr %14, align 8
  %194 = load i32, ptr %12, align 4
  %195 = zext i32 %194 to i64
  %196 = getelementptr ptr, ptr %193, i64 %195
  %197 = load ptr, ptr %196, align 8
  call void @js_free(ptr noundef %192, ptr noundef %197)
  br label %198

198:                                              ; preds = %191
  %199 = load i32, ptr %12, align 4
  %200 = add i32 %199, 1
  store i32 %200, ptr %12, align 4
  br label %187, !llvm.loop !47

201:                                              ; preds = %187
  %202 = load ptr, ptr %10, align 8
  %203 = load ptr, ptr %14, align 8
  call void @js_free(ptr noundef %202, ptr noundef %203)
  store ptr null, ptr %14, align 8
  br label %204

204:                                              ; preds = %201, %183
  br label %163

205:                                              ; preds = %179, %31
  %206 = load ptr, ptr %8, align 8
  ret ptr %206
}