; Function Attrs: nounwind uwtable
define internal fastcc ptr @build_envp(ptr noundef %0, i64 %1, i64 %2) unnamed_addr #0 {
  %4 = alloca i32, align 4
  %5 = alloca ptr, align 8
  %6 = call i32 @JS_GetOwnPropertyNames(ptr noundef %0, ptr noundef nonnull %5, ptr noundef nonnull %4, i64 %1, i64 %2, i32 noundef 17) #29
  %7 = icmp slt i32 %6, 0
  br i1 %7, label %65, label %8

8:                                                ; preds = %3
  %9 = load i32, ptr %4, align 4
  %10 = zext i32 %9 to i64
  %11 = shl nuw nsw i64 %10, 3
  %12 = add nuw nsw i64 %11, 8
  %13 = call ptr @js_mallocz(ptr noundef %0, i64 noundef %12) #29
  %.not = icmp eq ptr %13, null
  %.pre112 = load i32, ptr %4, align 4
  br i1 %.not, label %.critedge, label %.preheader87

.preheader87:                                     ; preds = %8
  %.not97 = icmp eq i32 %.pre112, 0
  br i1 %.not97, label %._crit_edge96, label %.lr.ph

.lr.ph:                                           ; preds = %.preheader87, %43
  %indvars.iv = phi i64 [ %indvars.iv.next, %43 ], [ 0, %.preheader87 ]
  %14 = load ptr, ptr %5, align 8
  %15 = getelementptr %struct.JSPropertyEnum, ptr %14, i64 %indvars.iv, i32 1
  %16 = load i32, ptr %15, align 4
  %17 = call { i64, i64 } @JS_GetPropertyInternal(ptr noundef %0, i64 %1, i64 %2, i32 noundef %16, i64 %1, i64 %2, i32 noundef 0) #29
  %18 = extractvalue { i64, i64 } %17, 0
  %19 = extractvalue { i64, i64 } %17, 1
  %20 = and i64 %19, 4294967295
  %.not86 = icmp eq i64 %20, 6
  br i1 %.not86, label %.preheader, label %21

21:                                               ; preds = %.lr.ph
  %22 = call ptr @JS_ToCStringLen2(ptr noundef %0, ptr noundef null, i64 %18, i64 %19, i32 noundef 0) #29
  %23 = trunc i64 %19 to i32
  %24 = icmp ugt i32 %23, -12
  br i1 %24, label %25, label %JS_FreeValue.exit

25:                                               ; preds = %21
  %26 = inttoptr i64 %18 to ptr
  %27 = load i32, ptr %26, align 4
  %28 = add i32 %27, -1
  store i32 %28, ptr %26, align 4
  %29 = icmp slt i32 %28, 1
  br i1 %29, label %30, label %JS_FreeValue.exit

30:                                               ; preds = %25
  call void @__JS_FreeValue(ptr noundef %0, i64 %18, i64 %19) #29
  br label %JS_FreeValue.exit

JS_FreeValue.exit:                                ; preds = %21, %25, %30
  %.not83 = icmp eq ptr %22, null
  br i1 %.not83, label %.preheader, label %31

31:                                               ; preds = %JS_FreeValue.exit
  %32 = load ptr, ptr %5, align 8
  %33 = getelementptr %struct.JSPropertyEnum, ptr %32, i64 %indvars.iv, i32 1
  %34 = load i32, ptr %33, align 4
  %35 = call ptr @JS_AtomToCString(ptr noundef %0, i32 noundef %34) #29
  %.not84 = icmp eq ptr %35, null
  br i1 %.not84, label %.preheader.sink.split, label %36

36:                                               ; preds = %31
  %37 = call i64 @strlen(ptr noundef nonnull dereferenceable(1) %35) #31
  %38 = call i64 @strlen(ptr noundef nonnull dereferenceable(1) %22) #31
  %39 = add i64 %37, 2
  %40 = add i64 %39, %38
  %41 = call ptr @js_malloc(ptr noundef %0, i64 noundef %40) #29
  %.not85 = icmp eq ptr %41, null
  br i1 %.not85, label %42, label %43

42:                                               ; preds = %36
  call void @JS_FreeCString(ptr noundef %0, ptr noundef nonnull %35) #29
  br label %.preheader.sink.split

43:                                               ; preds = %36
  call void @llvm.memcpy.p0.p0.i64(ptr nonnull align 1 %41, ptr nonnull align 1 %35, i64 %37, i1 false)
  %44 = getelementptr i8, ptr %41, i64 %37
  store i8 61, ptr %44, align 1
  %45 = getelementptr i8, ptr %44, i64 1
  call void @llvm.memcpy.p0.p0.i64(ptr align 1 %45, ptr nonnull align 1 %22, i64 %38, i1 false)
  %46 = getelementptr i8, ptr %45, i64 %38
  store i8 0, ptr %46, align 1
  %47 = getelementptr ptr, ptr %13, i64 %indvars.iv
  store ptr %41, ptr %47, align 8
  call void @JS_FreeCString(ptr noundef %0, ptr noundef nonnull %35) #29
  call void @JS_FreeCString(ptr noundef %0, ptr noundef nonnull %22) #29
  %indvars.iv.next = add nuw nsw i64 %indvars.iv, 1
  %48 = load i32, ptr %4, align 4
  %49 = zext i32 %48 to i64
  %50 = icmp ult i64 %indvars.iv.next, %49
  br i1 %50, label %.lr.ph, label %.critedge, !llvm.loop !45

.critedge:                                        ; preds = %43, %8, %._crit_edge
  %51 = phi i32 [ %.pre, %._crit_edge ], [ %.pre112, %8 ], [ %48, %43 ]
  %.075 = phi ptr [ null, %._crit_edge ], [ null, %8 ], [ %13, %43 ]
  %.not99 = icmp eq i32 %51, 0
  br i1 %.not99, label %._crit_edge96, label %.lr.ph95

.lr.ph95:                                         ; preds = %.critedge, %.lr.ph95
  %indvars.iv109 = phi i64 [ %indvars.iv.next110, %.lr.ph95 ], [ 0, %.critedge ]
  %52 = load ptr, ptr %5, align 8
  %53 = getelementptr %struct.JSPropertyEnum, ptr %52, i64 %indvars.iv109, i32 1
  %54 = load i32, ptr %53, align 4
  call void @JS_FreeAtom(ptr noundef %0, i32 noundef %54) #29
  %indvars.iv.next110 = add nuw nsw i64 %indvars.iv109, 1
  %55 = load i32, ptr %4, align 4
  %56 = zext i32 %55 to i64
  %57 = icmp ult i64 %indvars.iv.next110, %56
  br i1 %57, label %.lr.ph95, label %._crit_edge96, !llvm.loop !46

._crit_edge96:                                    ; preds = %.lr.ph95, %.preheader87, %.critedge
  %.075115 = phi ptr [ %.075, %.critedge ], [ %13, %.preheader87 ], [ %.075, %.lr.ph95 ]
  %58 = load ptr, ptr %5, align 8
  call void @js_free(ptr noundef %0, ptr noundef %58) #29
  br label %65

.preheader.sink.split:                            ; preds = %31, %42
  call void @JS_FreeCString(ptr noundef %0, ptr noundef nonnull %22) #29
  br label %.preheader

.preheader:                                       ; preds = %.lr.ph, %JS_FreeValue.exit, %.preheader.sink.split
  %59 = load i32, ptr %4, align 4
  %.not98 = icmp eq i32 %59, 0
  br i1 %.not98, label %._crit_edge, label %.lr.ph93

.lr.ph93:                                         ; preds = %.preheader, %.lr.ph93
  %indvars.iv106 = phi i64 [ %indvars.iv.next107, %.lr.ph93 ], [ 0, %.preheader ]
  %60 = getelementptr ptr, ptr %13, i64 %indvars.iv106
  %61 = load ptr, ptr %60, align 8
  call void @js_free(ptr noundef %0, ptr noundef %61) #29
  %indvars.iv.next107 = add nuw nsw i64 %indvars.iv106, 1
  %62 = load i32, ptr %4, align 4
  %63 = zext i32 %62 to i64
  %64 = icmp ult i64 %indvars.iv.next107, %63
  br i1 %64, label %.lr.ph93, label %._crit_edge, !llvm.loop !47

._crit_edge:                                      ; preds = %.lr.ph93, %.preheader
  call void @js_free(ptr noundef %0, ptr noundef nonnull %13) #29
  %.pre = load i32, ptr %4, align 4
  br label %.critedge

65:                                               ; preds = %3, %._crit_edge96
  %.0 = phi ptr [ %.075115, %._crit_edge96 ], [ null, %3 ]
  ret ptr %.0
}